target datalayout = "e-m:e-p270:32:32-p271:32:32-p272:64:64-i64:64-i128:128-f80:128-n8:16:32:64-S128"
target triple = "x86_64-pc-linux-gnu"

@rb_eArgError = external global i64, align 8
@.str.138 = private unnamed_addr constant [59 x i8] c"Type extends beyond end of buffer! (offset=%zd > size=%zd)\00", align 1

; Function Attrs: inlinehint nounwind sspstrong willreturn memory(none) uwtable
define internal i64 @RB_INT2FIX(i64 noundef %0) #11 {
  %2 = alloca i64, align 8
  %3 = alloca i64, align 8
  %4 = alloca i64, align 8
  %5 = alloca i64, align 8
  %6 = alloca i64, align 8
  %7 = alloca i64, align 8
  store i64 %0, ptr %2, align 8, !tbaa !20
  call void @llvm.lifetime.start.p0(i64 8, ptr %3) #22
  %8 = load i64, ptr %2, align 8, !tbaa !20
  store i64 %8, ptr %3, align 8, !tbaa !20
  call void @llvm.lifetime.start.p0(i64 8, ptr %4) #22
  %9 = load i64, ptr %3, align 8, !tbaa !20
  %10 = shl i64 %9, 1
  %11 = add i64 %10, 1
  store i64 %11, ptr %4, align 8, !tbaa !20
  call void @llvm.lifetime.start.p0(i64 8, ptr %5) #22
  %12 = load i64, ptr %4, align 8, !tbaa !20
  store i64 %12, ptr %5, align 8, !tbaa !20
  call void @llvm.lifetime.start.p0(i64 8, ptr %6) #22
  %13 = load i64, ptr %5, align 8, !tbaa !20
  store i64 %13, ptr %6, align 8, !tbaa !20
  call void @llvm.lifetime.start.p0(i64 8, ptr %7) #22
  %14 = load i64, ptr %6, align 8, !tbaa !20
  store i64 %14, ptr %7, align 8, !tbaa !20
  %15 = load i64, ptr %7, align 8, !tbaa !20
  call void @llvm.lifetime.end.p0(i64 8, ptr %7) #22
  call void @llvm.lifetime.end.p0(i64 8, ptr %6) #22
  call void @llvm.lifetime.end.p0(i64 8, ptr %5) #22
  call void @llvm.lifetime.end.p0(i64 8, ptr %4) #22
  call void @llvm.lifetime.end.p0(i64 8, ptr %3) #22
  ret i64 %15
}

; Function Attrs: alwaysinline nounwind
define internal ptr @memcpy.inline(ptr noalias nonnull %0, ptr noalias nonnull %1, i64 %2) #10 {
  %4 = alloca ptr, align 8
  %5 = alloca ptr, align 8
  %6 = alloca i64, align 8
  store ptr %0, ptr %4, align 8, !tbaa !7
  store ptr %1, ptr %5, align 8, !tbaa !7
  store i64 %2, ptr %6, align 8, !tbaa !20
  %7 = load ptr, ptr %4, align 8, !tbaa !7
  %8 = load ptr, ptr %5, align 8, !tbaa !7
  %9 = load i64, ptr %6, align 8, !tbaa !20
  %10 = load ptr, ptr %4, align 8, !tbaa !7
  %11 = call i64 @llvm.objectsize.i64.p0(ptr %10, i1 false, i1 true, i1 false)
  %12 = call ptr @__memcpy_chk(ptr noundef %7, ptr noundef %8, i64 noundef %9, i64 noundef %11) #22
  ret ptr %12
}

; Function Attrs: inlinehint nounwind sspstrong uwtable
define internal i64 @rb_uint2num_inline(i32 noundef %0) #3 {
  %2 = alloca i64, align 8
  %3 = alloca i32, align 4
  store i32 %0, ptr %3, align 4, !tbaa !32
  %4 = load i32, ptr %3, align 4, !tbaa !32
  %5 = zext i32 %4 to i64
  %6 = icmp slt i64 %5, 4611686018427387904
  br i1 %6, label %7, label %11

7:                                                ; preds = %1
  %8 = load i32, ptr %3, align 4, !tbaa !32
  %9 = zext i32 %8 to i64
  %10 = call i64 @RB_INT2FIX(i64 noundef %9) #24
  store i64 %10, ptr %2, align 8
  br label %15

11:                                               ; preds = %1
  %12 = load i32, ptr %3, align 4, !tbaa !32
  %13 = zext i32 %12 to i64
  %14 = call i64 @rb_uint2big(i64 noundef %13)
  store i64 %14, ptr %2, align 8
  br label %15

15:                                               ; preds = %11, %7
  %16 = load i64, ptr %2, align 8
  ret i64 %16
}

; Function Attrs: inlinehint nounwind sspstrong uwtable
define internal i32 @ruby_swap32(i32 noundef %0) #3 {
  %2 = alloca i32, align 4
  store i32 %0, ptr %2, align 4, !tbaa !32
  %3 = load i32, ptr %2, align 4, !tbaa !32
  %4 = call i32 @llvm.bswap.i32(i32 %3)
  ret i32 %4
}

; Function Attrs: inlinehint nounwind sspstrong memory(argmem: readwrite, inaccessiblemem: readwrite) uwtable
define internal nonnull ptr @ruby_nonempty_memcpy(ptr noundef nonnull %0, ptr noundef %1, i64 noundef %2) #20 {
  %4 = alloca ptr, align 8
  %5 = alloca ptr, align 8
  %6 = alloca ptr, align 8
  %7 = alloca i64, align 8
  store ptr %0, ptr %5, align 8, !tbaa !7
  store ptr %1, ptr %6, align 8, !tbaa !7
  store i64 %2, ptr %7, align 8, !tbaa !20
  %8 = load i64, ptr %7, align 8, !tbaa !20
  %9 = icmp ne i64 %8, 0
  br i1 %9, label %10, label %15

10:                                               ; preds = %3
  %11 = load ptr, ptr %5, align 8, !tbaa !7
  %12 = load ptr, ptr %6, align 8, !tbaa !7
  %13 = load i64, ptr %7, align 8, !tbaa !20
  %14 = call ptr @memcpy.inline(ptr noundef %11, ptr noundef %12, i64 noundef %13) #22
  store ptr %14, ptr %4, align 8
  br label %17

15:                                               ; preds = %3
  %16 = load ptr, ptr %5, align 8, !tbaa !7
  store ptr %16, ptr %4, align 8
  br label %17

17:                                               ; preds = %15, %10
  %18 = load ptr, ptr %4, align 8
  ret ptr %18
}

; Function Attrs: nounwind sspstrong uwtable
define internal void @io_buffer_validate_type(i64 noundef %0, i64 noundef %1) #0 {
  %3 = alloca i64, align 8
  %4 = alloca i64, align 8
  store i64 %0, ptr %3, align 8, !tbaa !20
  store i64 %1, ptr %4, align 8, !tbaa !20
  %5 = load i64, ptr %4, align 8, !tbaa !20
  %6 = load i64, ptr %3, align 8, !tbaa !20
  %7 = icmp ugt i64 %5, %6
  br i1 %7, label %8, label %12

8:                                                ; preds = %2
  %9 = load i64, ptr @rb_eArgError, align 8, !tbaa !20
  %10 = load i64, ptr %4, align 8, !tbaa !20
  %11 = load i64, ptr %3, align 8, !tbaa !20
  call void (i64, ptr, ...) @rb_raise(i64 noundef %9, ptr noundef @.str.138, i64 noundef %10, i64 noundef %11) #26
  unreachable

12:                                               ; preds = %2
  ret void
}

; Function Attrs: nounwind sspstrong uwtable
define internal i64 @io_buffer_read_U32(ptr noundef %0, i64 noundef %1, ptr noundef %2) #0 {
  %4 = alloca ptr, align 8
  %5 = alloca i64, align 8
  %6 = alloca ptr, align 8
  %7 = alloca i32, align 4
  store ptr %0, ptr %4, align 8, !tbaa !7
  store i64 %1, ptr %5, align 8, !tbaa !20
  store ptr %2, ptr %6, align 8, !tbaa !33
  %8 = load i64, ptr %5, align 8, !tbaa !20
  %9 = load ptr, ptr %6, align 8, !tbaa !33
  %10 = load i64, ptr %9, align 8, !tbaa !20
  %11 = add i64 %10, 4
  call void @io_buffer_validate_type(i64 noundef %8, i64 noundef %11)
  call void @llvm.lifetime.start.p0(i64 4, ptr %7) #22
  %12 = load ptr, ptr %4, align 8, !tbaa !7
  %13 = load ptr, ptr %6, align 8, !tbaa !33
  %14 = load i64, ptr %13, align 8, !tbaa !20
  %15 = getelementptr i8, ptr %12, i64 %14
  %16 = call nonnull ptr @ruby_nonempty_memcpy(ptr noundef %7, ptr noundef %15, i64 noundef 4) #29
  %17 = load i32, ptr %7, align 4, !tbaa !32
  %18 = call i32 @ruby_swap32(i32 noundef %17)
  store i32 %18, ptr %7, align 4, !tbaa !32
  %19 = load ptr, ptr %6, align 8, !tbaa !33
  %20 = load i64, ptr %19, align 8, !tbaa !20
  %21 = add i64 %20, 4
  store i64 %21, ptr %19, align 8, !tbaa !20
  %22 = load i32, ptr %7, align 4, !tbaa !32
  %23 = call i64 @rb_uint2num_inline(i32 noundef %22)
  call void @llvm.lifetime.end.p0(i64 4, ptr %7) #22
  ret i64 %23
}